target datalayout = "e-m:e-p270:32:32-p271:32:32-p272:64:64-i64:64-i128:128-f80:128-n8:16:32:64-S128"
target triple = "x86_64-pc-linux-gnu"

; Function Attrs: inlinehint nounwind willreturn memory(none) uwtable
define internal i32 @av_isspace(i32 noundef %0) #8 {
  %2 = alloca i32, align 4
  store i32 %0, ptr %2, align 4, !tbaa !21
  %3 = load i32, ptr %2, align 4, !tbaa !21
  %4 = icmp eq i32 %3, 32
  br i1 %4, label %20, label %5

5:                                                ; preds = %1
  %6 = load i32, ptr %2, align 4, !tbaa !21
  %7 = icmp eq i32 %6, 12
  br i1 %7, label %20, label %8

8:                                                ; preds = %5
  %9 = load i32, ptr %2, align 4, !tbaa !21
  %10 = icmp eq i32 %9, 10
  br i1 %10, label %20, label %11

11:                                               ; preds = %8
  %12 = load i32, ptr %2, align 4, !tbaa !21
  %13 = icmp eq i32 %12, 13
  br i1 %13, label %20, label %14

14:                                               ; preds = %11
  %15 = load i32, ptr %2, align 4, !tbaa !21
  %16 = icmp eq i32 %15, 9
  br i1 %16, label %20, label %17

17:                                               ; preds = %14
  %18 = load i32, ptr %2, align 4, !tbaa !21
  %19 = icmp eq i32 %18, 11
  br label %20

20:                                               ; preds = %17, %14, %11, %8, %5, %1
  %21 = phi i1 [ true, %14 ], [ true, %11 ], [ true, %8 ], [ true, %5 ], [ true, %1 ], [ %19, %17 ]
  %22 = zext i1 %21 to i32
  ret i32 %22
}

; Function Attrs: nounwind uwtable
define ptr @ff_smil_get_attr_ptr(ptr noundef %0, ptr noundef %1) #0 {
  %3 = alloca ptr, align 8
  %4 = alloca ptr, align 8
  %5 = alloca ptr, align 8
  %6 = alloca i32, align 4
  %7 = alloca i64, align 8
  %8 = alloca i32, align 4
  store ptr %0, ptr %4, align 8, !tbaa !27
  store ptr %1, ptr %5, align 8, !tbaa !27
  call void @llvm.lifetime.start.p0(i64 4, ptr %6) #9
  store i32 0, ptr %6, align 4, !tbaa !21
  call void @llvm.lifetime.start.p0(i64 8, ptr %7) #9
  %9 = load ptr, ptr %5, align 8, !tbaa !27
  %10 = call i64 @strlen(ptr noundef %9) #10
  store i64 %10, ptr %7, align 8, !tbaa !25
  br label %11

11:                                               ; preds = %78, %2
  %12 = load ptr, ptr %4, align 8, !tbaa !27
  %13 = load i8, ptr %12, align 1, !tbaa !22
  %14 = icmp ne i8 %13, 0
  br i1 %14, label %15, label %79

15:                                               ; preds = %11
  br label %16

16:                                               ; preds = %30, %15
  %17 = load ptr, ptr %4, align 8, !tbaa !27
  %18 = load i8, ptr %17, align 1, !tbaa !22
  %19 = icmp ne i8 %18, 0
  br i1 %19, label %20, label %40

20:                                               ; preds = %16
  %21 = load i32, ptr %6, align 4, !tbaa !21
  %22 = icmp ne i32 %21, 0
  br i1 %22, label %30, label %23

23:                                               ; preds = %20
  %24 = load ptr, ptr %4, align 8, !tbaa !27
  %25 = load i8, ptr %24, align 1, !tbaa !22
  %26 = sext i8 %25 to i32
  %27 = call i32 @av_isspace(i32 noundef %26) #11
  %28 = icmp ne i32 %27, 0
  br i1 %28, label %29, label %30

29:                                               ; preds = %23
  br label %40

30:                                               ; preds = %23, %20
  %31 = load ptr, ptr %4, align 8, !tbaa !27
  %32 = load i8, ptr %31, align 1, !tbaa !22
  %33 = sext i8 %32 to i32
  %34 = icmp eq i32 %33, 34
  %35 = zext i1 %34 to i32
  %36 = load i32, ptr %6, align 4, !tbaa !21
  %37 = xor i32 %36, %35
  store i32 %37, ptr %6, align 4, !tbaa !21
  %38 = load ptr, ptr %4, align 8, !tbaa !27
  %39 = getelementptr inbounds nuw i8, ptr %38, i32 1
  store ptr %39, ptr %4, align 8, !tbaa !27
  br label %16, !llvm.loop !80

40:                                               ; preds = %29, %16
  br label %41

41:                                               ; preds = %47, %40
  %42 = load ptr, ptr %4, align 8, !tbaa !27
  %43 = load i8, ptr %42, align 1, !tbaa !22
  %44 = sext i8 %43 to i32
  %45 = call i32 @av_isspace(i32 noundef %44) #11
  %46 = icmp ne i32 %45, 0
  br i1 %46, label %47, label %50

47:                                               ; preds = %41
  %48 = load ptr, ptr %4, align 8, !tbaa !27
  %49 = getelementptr inbounds nuw i8, ptr %48, i32 1
  store ptr %49, ptr %4, align 8, !tbaa !27
  br label %41, !llvm.loop !81

50:                                               ; preds = %41
  %51 = load ptr, ptr %4, align 8, !tbaa !27
  %52 = load ptr, ptr %5, align 8, !tbaa !27
  %53 = load i64, ptr %7, align 8, !tbaa !25
  %54 = call i32 @av_strncasecmp(ptr noundef %51, ptr noundef %52, i64 noundef %53)
  %55 = icmp ne i32 %54, 0
  br i1 %55, label %78, label %56

56:                                               ; preds = %50
  %57 = load ptr, ptr %4, align 8, !tbaa !27
  %58 = load i64, ptr %7, align 8, !tbaa !25
  %59 = getelementptr inbounds nuw i8, ptr %57, i64 %58
  %60 = load i8, ptr %59, align 1, !tbaa !22
  %61 = sext i8 %60 to i32
  %62 = icmp eq i32 %61, 61
  br i1 %62, label %63, label %78

63:                                               ; preds = %56
  %64 = load ptr, ptr %4, align 8, !tbaa !27
  %65 = load i64, ptr %7, align 8, !tbaa !25
  %66 = getelementptr inbounds nuw i8, ptr %64, i64 %65
  %67 = getelementptr inbounds i8, ptr %66, i64 1
  %68 = load ptr, ptr %4, align 8, !tbaa !27
  %69 = load i64, ptr %7, align 8, !tbaa !25
  %70 = add i64 %69, 1
  %71 = getelementptr inbounds nuw i8, ptr %68, i64 %70
  %72 = load i8, ptr %71, align 1, !tbaa !22
  %73 = sext i8 %72 to i32
  %74 = icmp eq i32 %73, 34
  %75 = zext i1 %74 to i32
  %76 = sext i32 %75 to i64
  %77 = getelementptr inbounds i8, ptr %67, i64 %76
  store ptr %77, ptr %3, align 8
  store i32 1, ptr %8, align 4
  br label %80

78:                                               ; preds = %56, %50
  br label %11, !llvm.loop !82

79:                                               ; preds = %11
  store ptr null, ptr %3, align 8
  store i32 1, ptr %8, align 4
  br label %80

80:                                               ; preds = %79, %63
  call void @llvm.lifetime.end.p0(i64 8, ptr %7) #9
  call void @llvm.lifetime.end.p0(i64 4, ptr %6) #9
  %81 = load ptr, ptr %3, align 8
  ret ptr %81
}