; Function Attrs: nounwind uwtable
define ptr @ff_smil_get_attr_ptr(ptr noundef %0, ptr noundef %1) local_unnamed_addr #0 {
  %3 = tail call i64 @strlen(ptr noundef nonnull dereferenceable(1) %1) #12
  %4 = load i8, ptr %0, align 1, !tbaa !19
  %.not35 = icmp eq i8 %4, 0
  br i1 %.not35, label %.loopexit, label %.preheader

.preheader:                                       ; preds = %2, %.preheader.backedge
  %.134 = phi i32 [ %.134.be, %.preheader.backedge ], [ 0, %2 ]
  %.12133 = phi ptr [ %.12133.be, %.preheader.backedge ], [ %0, %2 ]
  %5 = phi i8 [ %.be, %.preheader.backedge ], [ %4, %2 ]
  %.not24 = icmp eq i32 %.134, 0
  br i1 %.not24, label %6, label %7

6:                                                ; preds = %.preheader
  switch i8 %5, label %7 [
    i8 32, label %av_isspace.exit.thread
    i8 13, label %av_isspace.exit.thread
    i8 12, label %av_isspace.exit.thread
    i8 10, label %av_isspace.exit.thread
    i8 9, label %av_isspace.exit.thread
    i8 11, label %av_isspace.exit.thread
  ]

7:                                                ; preds = %6, %.preheader
  %8 = icmp eq i8 %5, 34
  %9 = zext i1 %8 to i32
  %10 = xor i32 %.134, %9
  %11 = getelementptr inbounds nuw i8, ptr %.12133, i64 1
  %.pr = load i8, ptr %11, align 1, !tbaa !19
  %.not23 = icmp eq i8 %.pr, 0
  br i1 %.not23, label %av_isspace.exit.thread, label %.preheader.backedge

.preheader.backedge:                              ; preds = %7, %29
  %.134.be = phi i32 [ %10, %7 ], [ %.1.lcssa, %29 ]
  %.12133.be = phi ptr [ %11, %7 ], [ %.2, %29 ]
  %.be = phi i8 [ %.pr, %7 ], [ %30, %29 ]
  br label %.preheader, !llvm.loop !67

av_isspace.exit.thread:                           ; preds = %6, %6, %6, %6, %6, %6, %7
  %12 = phi i8 [ %5, %6 ], [ %5, %6 ], [ %5, %6 ], [ %5, %6 ], [ %5, %6 ], [ %5, %6 ], [ 0, %7 ]
  %.121.lcssa = phi ptr [ %.12133, %6 ], [ %.12133, %6 ], [ %.12133, %6 ], [ %.12133, %6 ], [ %.12133, %6 ], [ %.12133, %6 ], [ %11, %7 ]
  %.1.lcssa = phi i32 [ 0, %6 ], [ 0, %6 ], [ 0, %6 ], [ 0, %6 ], [ 0, %6 ], [ 0, %6 ], [ %10, %7 ]
  br label %13

13:                                               ; preds = %av_isspace.exit28.thread, %av_isspace.exit.thread
  %14 = phi i8 [ %12, %av_isspace.exit.thread ], [ %.pre, %av_isspace.exit28.thread ]
  %.2 = phi ptr [ %.121.lcssa, %av_isspace.exit.thread ], [ %15, %av_isspace.exit28.thread ]
  switch i8 %14, label %16 [
    i8 32, label %av_isspace.exit28.thread
    i8 13, label %av_isspace.exit28.thread
    i8 12, label %av_isspace.exit28.thread
    i8 10, label %av_isspace.exit28.thread
    i8 9, label %av_isspace.exit28.thread
    i8 11, label %av_isspace.exit28.thread
  ]

av_isspace.exit28.thread:                         ; preds = %13, %13, %13, %13, %13, %13
  %15 = getelementptr inbounds nuw i8, ptr %.2, i64 1
  %.pre = load i8, ptr %15, align 1, !tbaa !19
  br label %13, !llvm.loop !68

16:                                               ; preds = %13
  %17 = tail call i32 @av_strncasecmp(ptr noundef nonnull %.2, ptr noundef nonnull %1, i64 noundef %3) #11
  %.not27 = icmp eq i32 %17, 0
  br i1 %.not27, label %18, label %29

18:                                               ; preds = %16
  %19 = getelementptr inbounds nuw i8, ptr %.2, i64 %3
  %20 = load i8, ptr %19, align 1, !tbaa !19
  %21 = icmp eq i8 %20, 61
  br i1 %21, label %22, label %29

22:                                               ; preds = %18
  %23 = getelementptr inbounds nuw i8, ptr %.2, i64 %3
  %24 = getelementptr i8, ptr %23, i64 1
  %25 = load i8, ptr %24, align 1, !tbaa !19
  %26 = icmp eq i8 %25, 34
  %27 = zext i1 %26 to i64
  %28 = getelementptr inbounds nuw i8, ptr %24, i64 %27
  br label %.loopexit

29:                                               ; preds = %18, %16
  %30 = load i8, ptr %.2, align 1, !tbaa !19
  %.not = icmp eq i8 %30, 0
  br i1 %.not, label %.loopexit, label %.preheader.backedge

.loopexit:                                        ; preds = %29, %2, %22
  %.0 = phi ptr [ %28, %22 ], [ null, %2 ], [ null, %29 ]
  ret ptr %.0
}